; Function Attrs: mustprogress nounwind uwtable
define dso_local noundef ptr @_ZNK4llvm24RISCVELFTargetObjectFile25getIndirectSymViaGOTPCRelEPKNS_11GlobalValueEPKNS_8MCSymbolERKNS_7MCValueElPNS_17MachineModuleInfoERNS_10MCStreamerE(ptr noundef nonnull readonly align 8 captures(none) dereferenceable(1092) %0, ptr readnone captures(none) %1, ptr noundef %2, ptr noundef nonnull readonly align 8 captures(none) dereferenceable(28) %3, i64 noundef %4, ptr readnone captures(none) %5, ptr nonnull readnone align 1 captures(none) %6) unnamed_addr #0 align 2 {
  %8 = getelementptr inbounds nuw i8, ptr %3, i64 16
  %9 = load i64, ptr %8, align 8
  %10 = add nsw i64 %9, %4
  %11 = getelementptr inbounds nuw i8, ptr %0, i64 904
  %12 = load ptr, ptr %11, align 8
  %13 = tail call noundef ptr @_ZN4llvm15MCSymbolRefExpr6createEPKNS_8MCSymbolENS0_11VariantKindERNS_9MCContextENS_5SMLocE(ptr noundef %2, i16 noundef zeroext 6, ptr noundef nonnull align 8 dereferenceable(2432) %12, ptr null) #9
  %14 = load ptr, ptr %11, align 8
  %15 = tail call noundef ptr @_ZN4llvm14MCConstantExpr6createElRNS_9MCContextEbj(i64 noundef %10, ptr noundef nonnull align 8 dereferenceable(2432) %14, i1 noundef zeroext false, i32 noundef 0) #9
  %16 = load ptr, ptr %11, align 8
  %17 = tail call noundef ptr @_ZN4llvm12MCBinaryExpr6createENS0_6OpcodeEPKNS_6MCExprES4_RNS_9MCContextENS_5SMLocE(i32 noundef 0, ptr noundef %13, ptr noundef %15, ptr noundef nonnull align 8 dereferenceable(2432) %16, ptr null) #9
  ret ptr %17
}